target datalayout = "e-m:e-p270:32:32-p271:32:32-p272:64:64-i64:64-i128:128-f80:128-n8:16:32:64-S128"
target triple = "x86_64-unknown-linux-gnu"

%"class.facebook::jsi::Value" = type { i32, %"union.facebook::jsi::Value::Data" }
%"union.facebook::jsi::Value::Data" = type { double }

; Function Attrs: mustprogress uwtable
define noundef zeroext i1 @_ZN8facebook3jsi5Value12strictEqualsERNS0_7RuntimeERKS1_S5_(ptr noundef nonnull align 8 dereferenceable(8) %runtime, ptr noundef nonnull align 8 dereferenceable(16) %a, ptr noundef nonnull align 8 dereferenceable(16) %b) #2 align 2 {
entry:
  %retval = alloca i1, align 1
  %runtime.addr = alloca ptr, align 8
  %a.addr = alloca ptr, align 8
  %b.addr = alloca ptr, align 8
  store ptr %runtime, ptr %runtime.addr, align 8
  store ptr %a, ptr %a.addr, align 8
  store ptr %b, ptr %b.addr, align 8
  %0 = load ptr, ptr %a.addr, align 8
  %kind_ = getelementptr inbounds %"class.facebook::jsi::Value", ptr %0, i32 0, i32 0
  %1 = load i32, ptr %kind_, align 8
  %2 = load ptr, ptr %b.addr, align 8
  %kind_1 = getelementptr inbounds %"class.facebook::jsi::Value", ptr %2, i32 0, i32 0
  %3 = load i32, ptr %kind_1, align 8
  %cmp = icmp ne i32 %1, %3
  br i1 %cmp, label %if.then, label %if.end

if.then:                                          ; preds = %entry
  store i1 false, ptr %retval, align 1
  br label %return

if.end:                                           ; preds = %entry
  %4 = load ptr, ptr %a.addr, align 8
  %kind_2 = getelementptr inbounds %"class.facebook::jsi::Value", ptr %4, i32 0, i32 0
  %5 = load i32, ptr %kind_2, align 8
  switch i32 %5, label %sw.epilog [
    i32 0, label %sw.bb
    i32 1, label %sw.bb
    i32 2, label %sw.bb3
    i32 3, label %sw.bb8
    i32 4, label %sw.bb12
    i32 5, label %sw.bb15
    i32 6, label %sw.bb21
    i32 7, label %sw.bb27
  ]

sw.bb:                                            ; preds = %if.end, %if.end
  store i1 true, ptr %retval, align 1
  br label %return

sw.bb3:                                           ; preds = %if.end
  %6 = load ptr, ptr %a.addr, align 8
  %data_ = getelementptr inbounds %"class.facebook::jsi::Value", ptr %6, i32 0, i32 1
  %7 = load i8, ptr %data_, align 8
  %tobool = trunc i8 %7 to i1
  %conv = zext i1 %tobool to i32
  %8 = load ptr, ptr %b.addr, align 8
  %data_4 = getelementptr inbounds %"class.facebook::jsi::Value", ptr %8, i32 0, i32 1
  %9 = load i8, ptr %data_4, align 8
  %tobool5 = trunc i8 %9 to i1
  %conv6 = zext i1 %tobool5 to i32
  %cmp7 = icmp eq i32 %conv, %conv6
  store i1 %cmp7, ptr %retval, align 1
  br label %return

sw.bb8:                                           ; preds = %if.end
  %10 = load ptr, ptr %a.addr, align 8
  %data_9 = getelementptr inbounds %"class.facebook::jsi::Value", ptr %10, i32 0, i32 1
  %11 = load double, ptr %data_9, align 8
  %12 = load ptr, ptr %b.addr, align 8
  %data_10 = getelementptr inbounds %"class.facebook::jsi::Value", ptr %12, i32 0, i32 1
  %13 = load double, ptr %data_10, align 8
  %cmp11 = fcmp oeq double %11, %13
  store i1 %cmp11, ptr %retval, align 1
  br label %return

sw.bb12:                                          ; preds = %if.end
  %14 = load ptr, ptr %runtime.addr, align 8
  %15 = load ptr, ptr %a.addr, align 8
  %data_13 = getelementptr inbounds %"class.facebook::jsi::Value", ptr %15, i32 0, i32 1
  %16 = load ptr, ptr %b.addr, align 8
  %data_14 = getelementptr inbounds %"class.facebook::jsi::Value", ptr %16, i32 0, i32 1
  %vtable = load ptr, ptr %14, align 8
  %vfn = getelementptr inbounds ptr, ptr %vtable, i64 65
  %17 = load ptr, ptr %vfn, align 8
  %call = call noundef zeroext i1 %17(ptr noundef nonnull align 8 dereferenceable(8) %14, ptr noundef nonnull align 8 dereferenceable(8) %data_13, ptr noundef nonnull align 8 dereferenceable(8) %data_14)
  store i1 %call, ptr %retval, align 1
  br label %return

sw.bb15:                                          ; preds = %if.end
  %18 = load ptr, ptr %runtime.addr, align 8
  %19 = load ptr, ptr %a.addr, align 8
  %data_16 = getelementptr inbounds %"class.facebook::jsi::Value", ptr %19, i32 0, i32 1
  %20 = load ptr, ptr %b.addr, align 8
  %data_17 = getelementptr inbounds %"class.facebook::jsi::Value", ptr %20, i32 0, i32 1
  %vtable18 = load ptr, ptr %18, align 8
  %vfn19 = getelementptr inbounds ptr, ptr %vtable18, i64 66
  %21 = load ptr, ptr %vfn19, align 8
  %call20 = call noundef zeroext i1 %21(ptr noundef nonnull align 8 dereferenceable(8) %18, ptr noundef nonnull align 8 dereferenceable(8) %data_16, ptr noundef nonnull align 8 dereferenceable(8) %data_17)
  store i1 %call20, ptr %retval, align 1
  br label %return

sw.bb21:                                          ; preds = %if.end
  %22 = load ptr, ptr %runtime.addr, align 8
  %23 = load ptr, ptr %a.addr, align 8
  %data_22 = getelementptr inbounds %"class.facebook::jsi::Value", ptr %23, i32 0, i32 1
  %24 = load ptr, ptr %b.addr, align 8
  %data_23 = getelementptr inbounds %"class.facebook::jsi::Value", ptr %24, i32 0, i32 1
  %vtable24 = load ptr, ptr %22, align 8
  %vfn25 = getelementptr inbounds ptr, ptr %vtable24, i64 67
  %25 = load ptr, ptr %vfn25, align 8
  %call26 = call noundef zeroext i1 %25(ptr noundef nonnull align 8 dereferenceable(8) %22, ptr noundef nonnull align 8 dereferenceable(8) %data_22, ptr noundef nonnull align 8 dereferenceable(8) %data_23)
  store i1 %call26, ptr %retval, align 1
  br label %return

sw.bb27:                                          ; preds = %if.end
  %26 = load ptr, ptr %runtime.addr, align 8
  %27 = load ptr, ptr %a.addr, align 8
  %data_28 = getelementptr inbounds %"class.facebook::jsi::Value", ptr %27, i32 0, i32 1
  %28 = load ptr, ptr %b.addr, align 8
  %data_29 = getelementptr inbounds %"class.facebook::jsi::Value", ptr %28, i32 0, i32 1
  %vtable30 = load ptr, ptr %26, align 8
  %vfn31 = getelementptr inbounds ptr, ptr %vtable30, i64 68
  %29 = load ptr, ptr %vfn31, align 8
  %call32 = call noundef zeroext i1 %29(ptr noundef nonnull align 8 dereferenceable(8) %26, ptr noundef nonnull align 8 dereferenceable(8) %data_28, ptr noundef nonnull align 8 dereferenceable(8) %data_29)
  store i1 %call32, ptr %retval, align 1
  br label %return

sw.epilog:                                        ; preds = %if.end
  store i1 false, ptr %retval, align 1
  br label %return

return:                                           ; preds = %sw.epilog, %sw.bb27, %sw.bb21, %sw.bb15, %sw.bb12, %sw.bb8, %sw.bb3, %sw.bb, %if.then
  %30 = load i1, ptr %retval, align 1
  ret i1 %30
}