; Function Attrs: mustprogress uwtable
define noundef zeroext i1 @_ZN8facebook3jsi5Value12strictEqualsERNS0_7RuntimeERKS1_S5_(ptr noundef nonnull align 8 dereferenceable(8) %runtime, ptr noundef nonnull align 8 dereferenceable(16) %a, ptr noundef nonnull align 8 dereferenceable(16) %b) local_unnamed_addr #11 align 2 {
entry:
  %0 = load i32, ptr %a, align 8
  %1 = load i32, ptr %b, align 8
  %cmp.not = icmp eq i32 %0, %1
  br i1 %cmp.not, label %if.end, label %return

if.end:                                           ; preds = %entry
  switch i32 %0, label %sw.epilog [
    i32 0, label %return
    i32 1, label %return
    i32 2, label %sw.bb3
    i32 3, label %sw.bb8
    i32 4, label %sw.bb12
    i32 5, label %sw.bb15
    i32 6, label %sw.bb21
    i32 7, label %sw.bb27
  ]

sw.bb3:                                           ; preds = %if.end
  %data_ = getelementptr inbounds i8, ptr %a, i64 8
  %2 = load i8, ptr %data_, align 8
  %data_4 = getelementptr inbounds i8, ptr %b, i64 8
  %3 = load i8, ptr %data_4, align 8
  %4 = xor i8 %3, %2
  %5 = and i8 %4, 1
  %cmp7 = icmp eq i8 %5, 0
  br label %return

sw.bb8:                                           ; preds = %if.end
  %data_9 = getelementptr inbounds i8, ptr %a, i64 8
  %6 = load double, ptr %data_9, align 8
  %data_10 = getelementptr inbounds i8, ptr %b, i64 8
  %7 = load double, ptr %data_10, align 8
  %cmp11 = fcmp oeq double %6, %7
  br label %return

sw.bb12:                                          ; preds = %if.end
  %data_13 = getelementptr inbounds i8, ptr %a, i64 8
  %data_14 = getelementptr inbounds i8, ptr %b, i64 8
  %vtable = load ptr, ptr %runtime, align 8
  %vfn = getelementptr inbounds i8, ptr %vtable, i64 520
  %8 = load ptr, ptr %vfn, align 8
  %call = tail call noundef zeroext i1 %8(ptr noundef nonnull align 8 dereferenceable(8) %runtime, ptr noundef nonnull align 8 dereferenceable(8) %data_13, ptr noundef nonnull align 8 dereferenceable(8) %data_14)
  br label %return

sw.bb15:                                          ; preds = %if.end
  %data_16 = getelementptr inbounds i8, ptr %a, i64 8
  %data_17 = getelementptr inbounds i8, ptr %b, i64 8
  %vtable18 = load ptr, ptr %runtime, align 8
  %vfn19 = getelementptr inbounds i8, ptr %vtable18, i64 528
  %9 = load ptr, ptr %vfn19, align 8
  %call20 = tail call noundef zeroext i1 %9(ptr noundef nonnull align 8 dereferenceable(8) %runtime, ptr noundef nonnull align 8 dereferenceable(8) %data_16, ptr noundef nonnull align 8 dereferenceable(8) %data_17)
  br label %return

sw.bb21:                                          ; preds = %if.end
  %data_22 = getelementptr inbounds i8, ptr %a, i64 8
  %data_23 = getelementptr inbounds i8, ptr %b, i64 8
  %vtable24 = load ptr, ptr %runtime, align 8
  %vfn25 = getelementptr inbounds i8, ptr %vtable24, i64 536
  %10 = load ptr, ptr %vfn25, align 8
  %call26 = tail call noundef zeroext i1 %10(ptr noundef nonnull align 8 dereferenceable(8) %runtime, ptr noundef nonnull align 8 dereferenceable(8) %data_22, ptr noundef nonnull align 8 dereferenceable(8) %data_23)
  br label %return

sw.bb27:                                          ; preds = %if.end
  %data_28 = getelementptr inbounds i8, ptr %a, i64 8
  %data_29 = getelementptr inbounds i8, ptr %b, i64 8
  %vtable30 = load ptr, ptr %runtime, align 8
  %vfn31 = getelementptr inbounds i8, ptr %vtable30, i64 544
  %11 = load ptr, ptr %vfn31, align 8
  %call32 = tail call noundef zeroext i1 %11(ptr noundef nonnull align 8 dereferenceable(8) %runtime, ptr noundef nonnull align 8 dereferenceable(8) %data_28, ptr noundef nonnull align 8 dereferenceable(8) %data_29)
  br label %return

sw.epilog:                                        ; preds = %if.end
  br label %return

return:                                           ; preds = %if.end, %if.end, %entry, %sw.epilog, %sw.bb27, %sw.bb21, %sw.bb15, %sw.bb12, %sw.bb8, %sw.bb3
  %retval.0 = phi i1 [ false, %sw.epilog ], [ %call32, %sw.bb27 ], [ %call26, %sw.bb21 ], [ %call20, %sw.bb15 ], [ %call, %sw.bb12 ], [ %cmp11, %sw.bb8 ], [ %cmp7, %sw.bb3 ], [ false, %entry ], [ true, %if.end ], [ true, %if.end ]
  ret i1 %retval.0
}